target datalayout = "e-m:e-p270:32:32-p271:32:32-p272:64:64-i64:64-i128:128-f80:128-n8:16:32:64-S128"
target triple = "x86_64-pc-linux-gnu"

%struct._packet_info = type { ptr, ptr, i32, i32, %struct.nstime_t, %struct.nstime_t, %struct.nstime_t, i8, ptr, ptr, ptr, ptr, %struct._address, %struct._address, %struct._address, %struct._address, %struct._address, %struct._address, i32, ptr, i8, [3 x i8], %struct.anon, i32, i32, i32, i32, ptr, i8, ptr, ptr, i16, i16, i32, i32, i16, i32, i32, ptr, ptr, ptr, i8, i8, i16, i16, i16, i32, i16, i16, ptr, ptr, ptr, ptr, ptr, i32, i32 }
%struct.nstime_t = type { i64, i32 }
%struct._address = type { i32, i32, ptr, ptr }
%struct.anon = type { i8, [3 x i8] }

@hf_cme_error = internal global i32 0, align 4
@hf_cme_error_verbose = internal global i32 0, align 4
@g_ascii_table = external constant ptr, align 8

; Function Attrs: alwaysinline nounwind
define internal ptr @memcpy.inline(ptr noalias %0, ptr noalias %1, i64 %2) #9 {
  %4 = alloca ptr, align 8
  %5 = alloca ptr, align 8
  %6 = alloca i64, align 8
  store ptr %0, ptr %4, align 8
  store ptr %1, ptr %5, align 8
  store i64 %2, ptr %6, align 8
  %7 = load ptr, ptr %4, align 8
  %8 = load ptr, ptr %5, align 8
  %9 = load i64, ptr %6, align 8
  %10 = load ptr, ptr %4, align 8
  %11 = call i64 @llvm.objectsize.i64.p0(ptr %10, i1 false, i1 true, i1 true)
  %12 = call ptr @__memcpy_chk(ptr noundef %7, ptr noundef %8, i64 noundef %9, i64 noundef %11) #12
  ret ptr %12
}

; Function Attrs: null_pointer_is_valid sspstrong uwtable
define internal i32 @get_uint_parameter(ptr noundef %0, ptr noundef %1, i32 noundef %2) #0 {
  %4 = alloca ptr, align 8
  %5 = alloca ptr, align 8
  %6 = alloca i32, align 4
  %7 = alloca i32, align 4
  %8 = alloca ptr, align 8
  store ptr %0, ptr %4, align 8
  store ptr %1, ptr %5, align 8
  store i32 %2, ptr %6, align 4
  call void @llvm.lifetime.start.p0(i64 4, ptr %7) #12
  call void @llvm.lifetime.start.p0(i64 8, ptr %8) #12
  %9 = load ptr, ptr %4, align 8
  %10 = load i32, ptr %6, align 4
  %11 = add i32 %10, 1
  %12 = sext i32 %11 to i64
  %13 = call noalias ptr @wmem_alloc(ptr noundef %9, i64 noundef %12) #13
  store ptr %13, ptr %8, align 8
  %14 = load ptr, ptr %8, align 8
  %15 = load ptr, ptr %5, align 8
  %16 = load i32, ptr %6, align 4
  %17 = sext i32 %16 to i64
  %18 = call ptr @memcpy.inline(ptr noundef %14, ptr noundef %15, i64 noundef %17) #12
  %19 = load ptr, ptr %8, align 8
  %20 = load i32, ptr %6, align 4
  %21 = sext i32 %20 to i64
  %22 = getelementptr i8, ptr %19, i64 %21
  store i8 0, ptr %22, align 1
  %23 = load ptr, ptr %8, align 8
  %24 = call i64 @g_ascii_strtoull(ptr noundef %23, ptr noundef null, i32 noundef 10)
  %25 = trunc i64 %24 to i32
  store i32 %25, ptr %7, align 4
  %26 = load i32, ptr %7, align 4
  call void @llvm.lifetime.end.p0(i64 8, ptr %8) #12
  call void @llvm.lifetime.end.p0(i64 4, ptr %7) #12
  ret i32 %26
}

; Function Attrs: null_pointer_is_valid sspstrong uwtable
define internal zeroext i1 @dissect_cme_error_parameter(ptr noundef %0, ptr noundef %1, ptr noundef %2, i32 noundef %3, i32 noundef %4, i16 noundef zeroext %5, ptr noundef %6, i32 noundef %7, i32 noundef %8, ptr noundef %9, ptr noundef %10) #0 {
  %12 = alloca i1, align 1
  %13 = alloca ptr, align 8
  %14 = alloca ptr, align 8
  %15 = alloca ptr, align 8
  %16 = alloca i32, align 4
  %17 = alloca i32, align 4
  %18 = alloca i16, align 2
  %19 = alloca ptr, align 8
  %20 = alloca i32, align 4
  %21 = alloca i32, align 4
  %22 = alloca ptr, align 8
  %23 = alloca ptr, align 8
  %24 = alloca i32, align 4
  %25 = alloca i32, align 4
  %26 = alloca i8, align 1
  %27 = alloca i32, align 4
  store ptr %0, ptr %13, align 8
  store ptr %1, ptr %14, align 8
  store ptr %2, ptr %15, align 8
  store i32 %3, ptr %16, align 4
  store i32 %4, ptr %17, align 4
  store i16 %5, ptr %18, align 2
  store ptr %6, ptr %19, align 8
  store i32 %7, ptr %20, align 4
  store i32 %8, ptr %21, align 4
  store ptr %9, ptr %22, align 8
  store ptr %10, ptr %23, align 8
  call void @llvm.lifetime.start.p0(i64 4, ptr %24) #12
  call void @llvm.lifetime.start.p0(i64 4, ptr %25) #12
  call void @llvm.lifetime.start.p0(i64 1, ptr %26) #12
  %28 = load i32, ptr %17, align 4
  %29 = icmp eq i32 %28, 1
  br i1 %29, label %30, label %34

30:                                               ; preds = %11
  %31 = load i16, ptr %18, align 2
  %32 = zext i16 %31 to i32
  %33 = icmp eq i32 %32, 58
  br i1 %33, label %35, label %34

34:                                               ; preds = %30, %11
  store i1 false, ptr %12, align 1
  store i32 1, ptr %27, align 4
  br label %87

35:                                               ; preds = %30
  %36 = load i32, ptr %20, align 4
  %37 = icmp ugt i32 %36, 0
  br i1 %37, label %38, label %39

38:                                               ; preds = %35
  store i1 false, ptr %12, align 1
  store i32 1, ptr %27, align 4
  br label %87

39:                                               ; preds = %35
  store i32 0, ptr %25, align 4
  br label %40

40:                                               ; preds = %70, %39
  %41 = load i32, ptr %25, align 4
  %42 = load i32, ptr %21, align 4
  %43 = icmp slt i32 %41, %42
  br i1 %43, label %44, label %73

44:                                               ; preds = %40
  %45 = load ptr, ptr %19, align 8
  %46 = load i32, ptr %25, align 4
  %47 = sext i32 %46 to i64
  %48 = getelementptr i8, ptr %45, i64 %47
  %49 = load i8, ptr %48, align 1
  store i8 %49, ptr %26, align 1
  %50 = load ptr, ptr @g_ascii_table, align 8
  %51 = load i8, ptr %26, align 1
  %52 = zext i8 %51 to i64
  %53 = getelementptr i16, ptr %50, i64 %52
  %54 = load i16, ptr %53, align 2
  %55 = zext i16 %54 to i32
  %56 = and i32 %55, 8
  %57 = icmp ne i32 %56, 0
  br i1 %57, label %69, label %58

58:                                               ; preds = %44
  %59 = load i8, ptr %26, align 1
  %60 = sext i8 %59 to i32
  %61 = icmp ne i32 %60, 32
  br i1 %61, label %62, label %69

62:                                               ; preds = %58
  %63 = load ptr, ptr %15, align 8
  %64 = load i32, ptr @hf_cme_error_verbose, align 4
  %65 = load ptr, ptr %13, align 8
  %66 = load i32, ptr %16, align 4
  %67 = load i32, ptr %21, align 4
  %68 = call ptr @proto_tree_add_item(ptr noundef %63, i32 noundef %64, ptr noundef %65, i32 noundef %66, i32 noundef %67, i32 noundef 0)
  store i1 true, ptr %12, align 1
  store i32 1, ptr %27, align 4
  br label %87

69:                                               ; preds = %58, %44
  br label %70

70:                                               ; preds = %69
  %71 = load i32, ptr %25, align 4
  %72 = add i32 %71, 1
  store i32 %72, ptr %25, align 4
  br label %40, !llvm.loop !18

73:                                               ; preds = %40
  %74 = load ptr, ptr %14, align 8
  %75 = getelementptr inbounds nuw %struct._packet_info, ptr %74, i32 0, i32 51
  %76 = load ptr, ptr %75, align 8
  %77 = load ptr, ptr %19, align 8
  %78 = load i32, ptr %21, align 4
  %79 = call i32 @get_uint_parameter(ptr noundef %76, ptr noundef %77, i32 noundef %78)
  store i32 %79, ptr %24, align 4
  %80 = load ptr, ptr %15, align 8
  %81 = load i32, ptr @hf_cme_error, align 4
  %82 = load ptr, ptr %13, align 8
  %83 = load i32, ptr %16, align 4
  %84 = load i32, ptr %21, align 4
  %85 = load i32, ptr %24, align 4
  %86 = call ptr @proto_tree_add_uint(ptr noundef %80, i32 noundef %81, ptr noundef %82, i32 noundef %83, i32 noundef %84, i32 noundef %85)
  store i1 true, ptr %12, align 1
  store i32 1, ptr %27, align 4
  br label %87

87:                                               ; preds = %73, %62, %38, %34
  call void @llvm.lifetime.end.p0(i64 1, ptr %26) #12
  call void @llvm.lifetime.end.p0(i64 4, ptr %25) #12
  call void @llvm.lifetime.end.p0(i64 4, ptr %24) #12
  %88 = load i1, ptr %12, align 1
  ret i1 %88
}