; Function Attrs: null_pointer_is_valid sspstrong uwtable
define internal noundef zeroext i1 @dissect_cme_error_parameter(ptr noundef %0, ptr noundef readonly captures(none) %1, ptr noundef %2, i32 noundef %3, i32 noundef %4, i16 noundef zeroext %5, ptr noundef readonly captures(none) %6, i32 noundef %7, i32 noundef %8, ptr readnone captures(none) %9, ptr readnone captures(none) %10) #0 {
  %12 = icmp eq i32 %4, 1
  %13 = icmp eq i16 %5, 58
  %or.cond = and i1 %12, %13
  %.not = icmp eq i32 %7, 0
  %or.cond29 = and i1 %or.cond, %.not
  br i1 %or.cond29, label %.preheader, label %42

.preheader:                                       ; preds = %11
  %14 = icmp sgt i32 %8, 0
  br i1 %14, label %.lr.ph, label %._crit_edge

.lr.ph:                                           ; preds = %.preheader
  %15 = load ptr, ptr @g_ascii_table, align 8
  %wide.trip.count = zext nneg i32 %8 to i64
  br label %17

16:                                               ; preds = %17
  %indvars.iv.next = add nuw nsw i64 %indvars.iv, 1
  %exitcond.not = icmp eq i64 %indvars.iv.next, %wide.trip.count
  br i1 %exitcond.not, label %._crit_edge, label %17, !llvm.loop !70

17:                                               ; preds = %.lr.ph, %16
  %indvars.iv = phi i64 [ 0, %.lr.ph ], [ %indvars.iv.next, %16 ]
  %18 = getelementptr i8, ptr %6, i64 %indvars.iv
  %19 = load i8, ptr %18, align 1
  %20 = zext i8 %19 to i64
  %21 = getelementptr i16, ptr %15, i64 %20
  %22 = load i16, ptr %21, align 2
  %23 = and i16 %22, 8
  %24 = icmp eq i16 %23, 0
  %25 = icmp ne i8 %19, 32
  %or.cond5 = and i1 %25, %24
  br i1 %or.cond5, label %26, label %16

26:                                               ; preds = %17
  %27 = load i32, ptr @hf_cme_error_verbose, align 4
  %28 = tail call ptr @proto_tree_add_item(ptr noundef %2, i32 noundef %27, ptr noundef %0, i32 noundef %3, i32 noundef %8, i32 noundef 0)
  br label %42

._crit_edge:                                      ; preds = %16, %.preheader
  %29 = getelementptr inbounds nuw i8, ptr %1, i64 408
  %30 = load ptr, ptr %29, align 8
  %31 = add i32 %8, 1
  %32 = sext i32 %31 to i64
  %33 = tail call noalias ptr @wmem_alloc(ptr noundef %30, i64 noundef %32) #12
  %34 = sext i32 %8 to i64
  %35 = icmp ne i32 %31, -1
  tail call void @llvm.assume(i1 %35)
  %36 = tail call ptr @__memcpy_chk(ptr noundef %33, ptr noundef readonly %6, i64 noundef range(i64 -2147483648, 2147483648) %34, i64 noundef %32) #13, !alias.scope !71
  %37 = getelementptr i8, ptr %33, i64 %34
  store i8 0, ptr %37, align 1
  %38 = tail call i64 @g_ascii_strtoull(ptr noundef %33, ptr noundef null, i32 noundef 10)
  %39 = trunc i64 %38 to i32
  %40 = load i32, ptr @hf_cme_error, align 4
  %41 = tail call ptr @proto_tree_add_uint(ptr noundef %2, i32 noundef %40, ptr noundef %0, i32 noundef %3, i32 noundef %8, i32 noundef %39)
  br label %42

42:                                               ; preds = %11, %._crit_edge, %26
  ret i1 %or.cond29
}